target datalayout = "e-m:e-p270:32:32-p271:32:32-p272:64:64-i64:64-i128:128-f80:128-n8:16:32:64-S128"
target triple = "x86_64-pc-linux-gnu"

%struct.grpc_slice_buffer = type { ptr, ptr, i64, i64, i64, [6 x %struct.grpc_slice] }
%struct.grpc_slice = type { ptr, %"union.grpc_slice::grpc_slice_data" }
%"union.grpc_slice::grpc_slice_data" = type { %"struct.grpc_slice::grpc_slice_data::grpc_slice_refcounted", [8 x i8] }
%"struct.grpc_slice::grpc_slice_data::grpc_slice_refcounted" = type { i64, ptr }
%struct.tsi_fake_zero_copy_grpc_protector = type { %struct.tsi_zero_copy_grpc_protector, %struct.grpc_slice_buffer, %struct.grpc_slice_buffer, i64, i64 }
%struct.tsi_zero_copy_grpc_protector = type { ptr }

; Function Attrs: mustprogress uwtable
define noundef ptr @_Z40tsi_create_fake_zero_copy_grpc_protectorPm(ptr noundef %0) #4 {
  %2 = alloca ptr, align 8
  %3 = alloca ptr, align 8
  store ptr %0, ptr %2, align 8, !tbaa !43
  call void @llvm.lifetime.start.p0(i64 8, ptr %3) #3
  %4 = call ptr @gpr_zalloc(i64 noundef 488)
  store ptr %4, ptr %3, align 8, !tbaa !52
  %5 = load ptr, ptr %3, align 8, !tbaa !52
  %6 = getelementptr inbounds nuw %struct.tsi_fake_zero_copy_grpc_protector, ptr %5, i32 0, i32 1
  call void @grpc_slice_buffer_init(ptr noundef %6)
  %7 = load ptr, ptr %3, align 8, !tbaa !52
  %8 = getelementptr inbounds nuw %struct.tsi_fake_zero_copy_grpc_protector, ptr %7, i32 0, i32 2
  call void @grpc_slice_buffer_init(ptr noundef %8)
  %9 = load ptr, ptr %2, align 8, !tbaa !43
  %10 = icmp eq ptr %9, null
  br i1 %10, label %11, label %12

11:                                               ; preds = %1
  br label %15

12:                                               ; preds = %1
  %13 = load ptr, ptr %2, align 8, !tbaa !43
  %14 = load i64, ptr %13, align 8, !tbaa !14
  br label %15

15:                                               ; preds = %12, %11
  %16 = phi i64 [ 16384, %11 ], [ %14, %12 ]
  %17 = load ptr, ptr %3, align 8, !tbaa !52
  %18 = getelementptr inbounds nuw %struct.tsi_fake_zero_copy_grpc_protector, ptr %17, i32 0, i32 3
  store i64 %16, ptr %18, align 8, !tbaa !54
  %19 = load ptr, ptr %3, align 8, !tbaa !52
  %20 = getelementptr inbounds nuw %struct.tsi_fake_zero_copy_grpc_protector, ptr %19, i32 0, i32 4
  store i64 0, ptr %20, align 8, !tbaa !58
  %21 = load ptr, ptr %3, align 8, !tbaa !52
  %22 = getelementptr inbounds nuw %struct.tsi_fake_zero_copy_grpc_protector, ptr %21, i32 0, i32 0
  %23 = getelementptr inbounds nuw %struct.tsi_zero_copy_grpc_protector, ptr %22, i32 0, i32 0
  store ptr @_ZL31zero_copy_grpc_protector_vtable, ptr %23, align 8, !tbaa !59
  %24 = load ptr, ptr %3, align 8, !tbaa !52
  %25 = getelementptr inbounds nuw %struct.tsi_fake_zero_copy_grpc_protector, ptr %24, i32 0, i32 0
  call void @llvm.lifetime.end.p0(i64 8, ptr %3) #3
  ret ptr %25
}