; Function Attrs: mustprogress uwtable
define noundef ptr @_Z40tsi_create_fake_zero_copy_grpc_protectorPm(ptr noundef readonly %0) local_unnamed_addr #3 {
  %2 = tail call ptr @gpr_zalloc(i64 noundef 488)
  %3 = getelementptr inbounds nuw i8, ptr %2, i64 8
  tail call void @grpc_slice_buffer_init(ptr noundef nonnull %3)
  %4 = getelementptr inbounds nuw i8, ptr %2, i64 240
  tail call void @grpc_slice_buffer_init(ptr noundef nonnull %4)
  %5 = icmp eq ptr %0, null
  br i1 %5, label %8, label %6

6:                                                ; preds = %1
  %7 = load i64, ptr %0, align 8, !tbaa !40
  br label %8

8:                                                ; preds = %1, %6
  %9 = phi i64 [ %7, %6 ], [ 16384, %1 ]
  %10 = getelementptr inbounds nuw i8, ptr %2, i64 472
  store i64 %9, ptr %10, align 8, !tbaa !46
  %11 = getelementptr inbounds nuw i8, ptr %2, i64 480
  store i64 0, ptr %11, align 8, !tbaa !50
  store ptr @_ZL31zero_copy_grpc_protector_vtable, ptr %2, align 8, !tbaa !51
  ret ptr %2
}